; Function Attrs: nounwind uwtable
define internal fastcc { i64, ptr } @type_error(i64 %0, ptr %1, ptr noundef %2) unnamed_addr #0 {
  %4 = alloca [15 x i8], align 1
  call void @llvm.lifetime.start.p0(i64 15, ptr nonnull %4) #14
  %5 = tail call i32 @jv_get_kind(i64 %0, ptr %1) #14
  %6 = tail call ptr @jv_kind_name(i32 noundef %5) #14
  %7 = call ptr @jv_dump_string_trunc(i64 %0, ptr %1, ptr noundef nonnull %4, i64 noundef 15) #14
  %8 = call { i64, ptr } (ptr, ...) @jv_string_fmt(ptr noundef nonnull @.str.155, ptr noundef %6, ptr noundef %7, ptr noundef %2) #14
  %9 = extractvalue { i64, ptr } %8, 0
  %10 = extractvalue { i64, ptr } %8, 1
  %11 = call { i64, ptr } @jv_invalid_with_msg(i64 %9, ptr %10) #14
  call void @llvm.lifetime.end.p0(i64 15, ptr nonnull %4) #14
  ret { i64, ptr } %11
}